; Function Attrs: nounwind uwtable
define i32 @SUNNonlinSolFree(ptr noundef %0) local_unnamed_addr #4 {
  %2 = icmp eq ptr %0, null
  br i1 %2, label %18, label %3

3:                                                ; preds = %1
  %4 = getelementptr inbounds nuw i8, ptr %0, i64 8
  %5 = load ptr, ptr %4, align 8, !tbaa !10
  %.not = icmp eq ptr %5, null
  br i1 %.not, label %11, label %6

6:                                                ; preds = %3
  %7 = getelementptr inbounds nuw i8, ptr %5, i64 32
  %8 = load ptr, ptr %7, align 8, !tbaa !17
  %.not17 = icmp eq ptr %8, null
  br i1 %.not17, label %11, label %9

9:                                                ; preds = %6
  %10 = tail call i32 %8(ptr noundef nonnull %0) #7
  br label %18

11:                                               ; preds = %6, %3
  %12 = load ptr, ptr %0, align 8, !tbaa !11
  %.not18 = icmp eq ptr %12, null
  br i1 %.not18, label %14, label %13

13:                                               ; preds = %11
  tail call void @free(ptr noundef nonnull %12) #7
  store ptr null, ptr %0, align 8, !tbaa !11
  %.pre = load ptr, ptr %4, align 8, !tbaa !10
  br label %14

14:                                               ; preds = %13, %11
  %15 = phi ptr [ %.pre, %13 ], [ %5, %11 ]
  %.not19 = icmp eq ptr %15, null
  br i1 %.not19, label %17, label %16

16:                                               ; preds = %14
  tail call void @free(ptr noundef nonnull %15) #7
  br label %17

17:                                               ; preds = %16, %14
  tail call void @free(ptr noundef nonnull %0) #7
  br label %18

18:                                               ; preds = %1, %17, %9
  %.0 = phi i32 [ %10, %9 ], [ 0, %17 ], [ 0, %1 ]
  ret i32 %.0
}